target datalayout = "e-m:e-p270:32:32-p271:32:32-p272:64:64-i64:64-i128:128-f80:128-n8:16:32:64-S128"
target triple = "x86_64-pc-linux-gnu"

%"struct.icu_77::LocaleDistanceData" = type { ptr, ptr, ptr, ptr, i32, ptr }
%"struct.icu_77::LSR" = type <{ ptr, ptr, ptr, ptr, i32, i32, i32, [4 x i8] }>
%"class.icu_77::CharStringMap" = type { ptr }
%"class.icu_77::LikelySubtags" = type { ptr, ptr, %"class.icu_77::CharStringMap", %"class.icu_77::CharStringMap", %"class.icu_77::BytesTrie", i64, i64, i32, [26 x i64], ptr, %"struct.icu_77::LocaleDistanceData" }
%"class.icu_77::BytesTrie" = type <{ ptr, ptr, ptr, i32, [4 x i8] }>

@.str = private unnamed_addr constant [1 x i8] zeroinitializer, align 1

; Function Attrs: mustprogress uwtable
define noundef i32 @_ZNK6icu_7713LikelySubtags13compareLikelyERKNS_3LSRES3_i(ptr noundef nonnull align 8 dereferenceable(352) %0, ptr noundef nonnull align 8 dereferenceable(48) %1, ptr noundef nonnull align 8 dereferenceable(48) %2, i32 noundef %3) #1 align 2 {
  %5 = alloca i32, align 4
  %6 = alloca ptr, align 8
  %7 = alloca ptr, align 8
  %8 = alloca ptr, align 8
  %9 = alloca i32, align 4
  %10 = alloca i32, align 4
  %11 = alloca ptr, align 8
  %12 = alloca i32, align 4
  %13 = alloca i32, align 4
  %14 = alloca ptr, align 8
  store ptr %0, ptr %6, align 8, !tbaa !38
  store ptr %1, ptr %7, align 8, !tbaa !35
  store ptr %2, ptr %8, align 8, !tbaa !35
  store i32 %3, ptr %9, align 4, !tbaa !14
  %15 = load ptr, ptr %6, align 8
  %16 = load ptr, ptr %7, align 8, !tbaa !35
  %17 = getelementptr inbounds nuw %"struct.icu_77::LSR", ptr %16, i32 0, i32 0
  %18 = load ptr, ptr %17, align 8, !tbaa !120
  %19 = load ptr, ptr %8, align 8, !tbaa !35
  %20 = getelementptr inbounds nuw %"struct.icu_77::LSR", ptr %19, i32 0, i32 0
  %21 = load ptr, ptr %20, align 8, !tbaa !120
  %22 = call i32 @strcmp(ptr noundef %18, ptr noundef %21) #16
  %23 = icmp ne i32 %22, 0
  br i1 %23, label %24, label %25

24:                                               ; preds = %4
  store i32 -4, ptr %5, align 4
  br label %126

25:                                               ; preds = %4
  %26 = load ptr, ptr %7, align 8, !tbaa !35
  %27 = getelementptr inbounds nuw %"struct.icu_77::LSR", ptr %26, i32 0, i32 1
  %28 = load ptr, ptr %27, align 8, !tbaa !121
  %29 = load ptr, ptr %8, align 8, !tbaa !35
  %30 = getelementptr inbounds nuw %"struct.icu_77::LSR", ptr %29, i32 0, i32 1
  %31 = load ptr, ptr %30, align 8, !tbaa !121
  %32 = call i32 @strcmp(ptr noundef %28, ptr noundef %31) #16
  %33 = icmp ne i32 %32, 0
  br i1 %33, label %34, label %72

34:                                               ; preds = %25
  call void @llvm.lifetime.start.p0(i64 4, ptr %10) #13
  %35 = load i32, ptr %9, align 4, !tbaa !14
  %36 = icmp sge i32 %35, 0
  br i1 %36, label %37, label %44

37:                                               ; preds = %34
  %38 = load i32, ptr %9, align 4, !tbaa !14
  %39 = and i32 %38, 2
  %40 = icmp eq i32 %39, 0
  br i1 %40, label %41, label %44

41:                                               ; preds = %37
  %42 = load i32, ptr %9, align 4, !tbaa !14
  %43 = ashr i32 %42, 2
  store i32 %43, ptr %10, align 4, !tbaa !14
  br label %51

44:                                               ; preds = %37, %34
  %45 = load ptr, ptr %7, align 8, !tbaa !35
  %46 = getelementptr inbounds nuw %"struct.icu_77::LSR", ptr %45, i32 0, i32 0
  %47 = load ptr, ptr %46, align 8, !tbaa !120
  %48 = call noundef i32 @_ZNK6icu_7713LikelySubtags14getLikelyIndexEPKcS2_(ptr noundef nonnull align 8 dereferenceable(352) %15, ptr noundef %47, ptr noundef @.str)
  store i32 %48, ptr %10, align 4, !tbaa !14
  %49 = load i32, ptr %10, align 4, !tbaa !14
  %50 = shl i32 %49, 2
  store i32 %50, ptr %9, align 4, !tbaa !14
  br label %51

51:                                               ; preds = %44, %41
  call void @llvm.lifetime.start.p0(i64 8, ptr %11) #13
  %52 = getelementptr inbounds nuw %"class.icu_77::LikelySubtags", ptr %15, i32 0, i32 9
  %53 = load ptr, ptr %52, align 8, !tbaa !92
  %54 = load i32, ptr %10, align 4, !tbaa !14
  %55 = sext i32 %54 to i64
  %56 = getelementptr inbounds %"struct.icu_77::LSR", ptr %53, i64 %55
  store ptr %56, ptr %11, align 8, !tbaa !35
  %57 = load ptr, ptr %7, align 8, !tbaa !35
  %58 = getelementptr inbounds nuw %"struct.icu_77::LSR", ptr %57, i32 0, i32 1
  %59 = load ptr, ptr %58, align 8, !tbaa !121
  %60 = load ptr, ptr %11, align 8, !tbaa !35
  %61 = getelementptr inbounds nuw %"struct.icu_77::LSR", ptr %60, i32 0, i32 1
  %62 = load ptr, ptr %61, align 8, !tbaa !121
  %63 = call i32 @strcmp(ptr noundef %59, ptr noundef %62) #16
  %64 = icmp eq i32 %63, 0
  br i1 %64, label %65, label %68

65:                                               ; preds = %51
  %66 = load i32, ptr %9, align 4, !tbaa !14
  %67 = or i32 %66, 1
  store i32 %67, ptr %5, align 4
  store i32 1, ptr %12, align 4
  br label %71

68:                                               ; preds = %51
  %69 = load i32, ptr %9, align 4, !tbaa !14
  %70 = and i32 %69, -2
  store i32 %70, ptr %5, align 4
  store i32 1, ptr %12, align 4
  br label %71

71:                                               ; preds = %68, %65
  call void @llvm.lifetime.end.p0(i64 8, ptr %11) #13
  call void @llvm.lifetime.end.p0(i64 4, ptr %10) #13
  br label %126

72:                                               ; preds = %25
  %73 = load ptr, ptr %7, align 8, !tbaa !35
  %74 = getelementptr inbounds nuw %"struct.icu_77::LSR", ptr %73, i32 0, i32 2
  %75 = load ptr, ptr %74, align 8, !tbaa !122
  %76 = load ptr, ptr %8, align 8, !tbaa !35
  %77 = getelementptr inbounds nuw %"struct.icu_77::LSR", ptr %76, i32 0, i32 2
  %78 = load ptr, ptr %77, align 8, !tbaa !122
  %79 = call i32 @strcmp(ptr noundef %75, ptr noundef %78) #16
  %80 = icmp ne i32 %79, 0
  br i1 %80, label %81, label %123

81:                                               ; preds = %72
  call void @llvm.lifetime.start.p0(i64 4, ptr %13) #13
  %82 = load i32, ptr %9, align 4, !tbaa !14
  %83 = icmp sge i32 %82, 0
  br i1 %83, label %84, label %91

84:                                               ; preds = %81
  %85 = load i32, ptr %9, align 4, !tbaa !14
  %86 = and i32 %85, 2
  %87 = icmp ne i32 %86, 0
  br i1 %87, label %88, label %91

88:                                               ; preds = %84
  %89 = load i32, ptr %9, align 4, !tbaa !14
  %90 = ashr i32 %89, 2
  store i32 %90, ptr %13, align 4, !tbaa !14
  br label %102

91:                                               ; preds = %84, %81
  %92 = load ptr, ptr %7, align 8, !tbaa !35
  %93 = getelementptr inbounds nuw %"struct.icu_77::LSR", ptr %92, i32 0, i32 0
  %94 = load ptr, ptr %93, align 8, !tbaa !120
  %95 = load ptr, ptr %7, align 8, !tbaa !35
  %96 = getelementptr inbounds nuw %"struct.icu_77::LSR", ptr %95, i32 0, i32 2
  %97 = load ptr, ptr %96, align 8, !tbaa !122
  %98 = call noundef i32 @_ZNK6icu_7713LikelySubtags14getLikelyIndexEPKcS2_(ptr noundef nonnull align 8 dereferenceable(352) %15, ptr noundef %94, ptr noundef %97)
  store i32 %98, ptr %13, align 4, !tbaa !14
  %99 = load i32, ptr %13, align 4, !tbaa !14
  %100 = shl i32 %99, 2
  %101 = or i32 %100, 2
  store i32 %101, ptr %9, align 4, !tbaa !14
  br label %102

102:                                              ; preds = %91, %88
  call void @llvm.lifetime.start.p0(i64 8, ptr %14) #13
  %103 = getelementptr inbounds nuw %"class.icu_77::LikelySubtags", ptr %15, i32 0, i32 9
  %104 = load ptr, ptr %103, align 8, !tbaa !92
  %105 = load i32, ptr %13, align 4, !tbaa !14
  %106 = sext i32 %105 to i64
  %107 = getelementptr inbounds %"struct.icu_77::LSR", ptr %104, i64 %106
  store ptr %107, ptr %14, align 8, !tbaa !35
  %108 = load ptr, ptr %7, align 8, !tbaa !35
  %109 = getelementptr inbounds nuw %"struct.icu_77::LSR", ptr %108, i32 0, i32 2
  %110 = load ptr, ptr %109, align 8, !tbaa !122
  %111 = load ptr, ptr %14, align 8, !tbaa !35
  %112 = getelementptr inbounds nuw %"struct.icu_77::LSR", ptr %111, i32 0, i32 2
  %113 = load ptr, ptr %112, align 8, !tbaa !122
  %114 = call i32 @strcmp(ptr noundef %110, ptr noundef %113) #16
  %115 = icmp eq i32 %114, 0
  br i1 %115, label %116, label %119

116:                                              ; preds = %102
  %117 = load i32, ptr %9, align 4, !tbaa !14
  %118 = or i32 %117, 1
  store i32 %118, ptr %5, align 4
  store i32 1, ptr %12, align 4
  br label %122

119:                                              ; preds = %102
  %120 = load i32, ptr %9, align 4, !tbaa !14
  %121 = and i32 %120, -2
  store i32 %121, ptr %5, align 4
  store i32 1, ptr %12, align 4
  br label %122

122:                                              ; preds = %119, %116
  call void @llvm.lifetime.end.p0(i64 8, ptr %14) #13
  call void @llvm.lifetime.end.p0(i64 4, ptr %13) #13
  br label %126

123:                                              ; preds = %72
  %124 = load i32, ptr %9, align 4, !tbaa !14
  %125 = and i32 %124, -2
  store i32 %125, ptr %5, align 4
  br label %126

126:                                              ; preds = %123, %122, %71, %24
  %127 = load i32, ptr %5, align 4
  ret i32 %127
}