; Function Attrs: mustprogress uwtable
define noundef i32 @_ZNK6icu_7713LikelySubtags13compareLikelyERKNS_3LSRES3_i(ptr noundef nonnull readonly align 8 captures(none) dereferenceable(352) %0, ptr noundef nonnull readonly align 8 captures(none) dereferenceable(48) %1, ptr noundef nonnull readonly align 8 captures(none) dereferenceable(48) %2, i32 noundef %3) local_unnamed_addr #1 align 2 {
  %5 = load ptr, ptr %1, align 8, !tbaa !90
  %6 = load ptr, ptr %2, align 8, !tbaa !90
  %7 = tail call i32 @strcmp(ptr noundef nonnull dereferenceable(1) %5, ptr noundef nonnull dereferenceable(1) %6) #20
  %.not = icmp eq i32 %7, 0
  br i1 %.not, label %8, label %58

8:                                                ; preds = %4
  %9 = getelementptr inbounds nuw i8, ptr %1, i64 8
  %10 = load ptr, ptr %9, align 8, !tbaa !91
  %11 = getelementptr inbounds nuw i8, ptr %2, i64 8
  %12 = load ptr, ptr %11, align 8, !tbaa !91
  %13 = tail call i32 @strcmp(ptr noundef nonnull dereferenceable(1) %10, ptr noundef nonnull dereferenceable(1) %12) #20
  %.not35 = icmp eq i32 %13, 0
  br i1 %.not35, label %32, label %14

14:                                               ; preds = %8
  %15 = and i32 %3, -2147483646
  %or.cond = icmp eq i32 %15, 0
  br i1 %or.cond, label %16, label %18

16:                                               ; preds = %14
  %17 = lshr i32 %3, 2
  br label %21

18:                                               ; preds = %14
  %19 = tail call noundef i32 @_ZNK6icu_7713LikelySubtags14getLikelyIndexEPKcS2_(ptr noundef nonnull align 8 dereferenceable(352) %0, ptr noundef nonnull %5, ptr noundef nonnull @.str)
  %20 = shl i32 %19, 2
  %.pre = load ptr, ptr %9, align 8, !tbaa !91
  br label %21

21:                                               ; preds = %18, %16
  %22 = phi ptr [ %10, %16 ], [ %.pre, %18 ]
  %.032 = phi i32 [ %17, %16 ], [ %19, %18 ]
  %.030 = phi i32 [ %3, %16 ], [ %20, %18 ]
  %23 = getelementptr inbounds nuw i8, ptr %0, i64 296
  %24 = load ptr, ptr %23, align 8, !tbaa !117
  %25 = sext i32 %.032 to i64
  %26 = getelementptr inbounds %"struct.icu_77::LSR", ptr %24, i64 %25, i32 1
  %27 = load ptr, ptr %26, align 8, !tbaa !91
  %28 = tail call i32 @strcmp(ptr noundef nonnull dereferenceable(1) %22, ptr noundef nonnull dereferenceable(1) %27) #20
  %29 = icmp eq i32 %28, 0
  %30 = or i32 %.030, 1
  %31 = and i32 %.030, -4
  %.1 = select i1 %29, i32 %30, i32 %31
  br label %58

32:                                               ; preds = %8
  %33 = getelementptr inbounds nuw i8, ptr %1, i64 16
  %34 = load ptr, ptr %33, align 8, !tbaa !92
  %35 = getelementptr inbounds nuw i8, ptr %2, i64 16
  %36 = load ptr, ptr %35, align 8, !tbaa !92
  %37 = tail call i32 @strcmp(ptr noundef nonnull dereferenceable(1) %34, ptr noundef nonnull dereferenceable(1) %36) #20
  %.not36 = icmp eq i32 %37, 0
  br i1 %.not36, label %56, label %38

38:                                               ; preds = %32
  %39 = and i32 %3, -2147483646
  %or.cond39.not = icmp eq i32 %39, 2
  br i1 %or.cond39.not, label %40, label %43

40:                                               ; preds = %38
  %41 = lshr i32 %3, 2
  %42 = and i32 %3, 2147483646
  br label %47

43:                                               ; preds = %38
  %44 = tail call noundef i32 @_ZNK6icu_7713LikelySubtags14getLikelyIndexEPKcS2_(ptr noundef nonnull align 8 dereferenceable(352) %0, ptr noundef nonnull %5, ptr noundef nonnull %34)
  %45 = shl i32 %44, 2
  %46 = or disjoint i32 %45, 2
  %.pre40 = load ptr, ptr %33, align 8, !tbaa !92
  br label %47

47:                                               ; preds = %43, %40
  %48 = phi ptr [ %34, %40 ], [ %.pre40, %43 ]
  %.131 = phi i32 [ %42, %40 ], [ %46, %43 ]
  %.029 = phi i32 [ %41, %40 ], [ %44, %43 ]
  %49 = getelementptr inbounds nuw i8, ptr %0, i64 296
  %50 = load ptr, ptr %49, align 8, !tbaa !117
  %51 = sext i32 %.029 to i64
  %52 = getelementptr inbounds %"struct.icu_77::LSR", ptr %50, i64 %51, i32 2
  %53 = load ptr, ptr %52, align 8, !tbaa !92
  %54 = tail call i32 @strcmp(ptr noundef nonnull dereferenceable(1) %48, ptr noundef nonnull dereferenceable(1) %53) #20
  %55 = icmp eq i32 %54, 0
  %masksel = zext i1 %55 to i32
  %.2 = or i32 %.131, %masksel
  br label %58

56:                                               ; preds = %32
  %57 = and i32 %3, -2
  br label %58

58:                                               ; preds = %4, %56, %47, %21
  %.0 = phi i32 [ %.1, %21 ], [ %.2, %47 ], [ %57, %56 ], [ -4, %4 ]
  ret i32 %.0
}